; Function Attrs: mustprogress uwtable
define noundef double @_ZNK8QuantLib14NoArbSabrModel11optionPriceEd(ptr noundef nonnull align 8 dereferenceable(112) %this, double noundef %strike) local_unnamed_addr #0 align 2 personality ptr @__gxx_personality_v0 {
entry:
  %ref.tmp = alloca %"class.std::function", align 8
  %forward_ = getelementptr inbounds nuw i8, ptr %this, i64 72
  %0 = load double, ptr %forward_, align 8, !tbaa !52
  %cmp.i = fcmp olt double %0, %strike
  %.sroa.speculated12 = select i1 %cmp.i, double %strike, double %0
  %call2 = tail call noundef double @_ZNK8QuantLib14NoArbSabrModel1pEd(ptr noundef nonnull align 8 dereferenceable(112) %this, double noundef %.sroa.speculated12)
  %cmp = fcmp olt double %call2, 1.000000e-100
  br i1 %cmp, label %return, label %if.end

if.end:                                           ; preds = %entry
  %absProb_ = getelementptr inbounds nuw i8, ptr %this, i64 48
  %1 = load double, ptr %absProb_, align 8, !tbaa !36
  %integrator_ = getelementptr inbounds nuw i8, ptr %this, i64 96
  %2 = load ptr, ptr %integrator_, align 8, !tbaa !31
  %cmp.not.i = icmp eq ptr %2, null
  br i1 %cmp.not.i, label %cond.false.i, label %_ZNK5boost10shared_ptrIN8QuantLib20GaussLobattoIntegralEEdeEv.exit, !prof !91

cond.false.i:                                     ; preds = %if.end
  tail call void @_ZN5boost16assertion_failedEPKcS1_S1_l(ptr noundef nonnull @.str.37, ptr noundef nonnull @__PRETTY_FUNCTION__._ZNK5boost10shared_ptrIN8QuantLib20GaussLobattoIntegralEEdeEv, ptr noundef nonnull @.str.38, i64 noundef 778)
  %.pre.i = load ptr, ptr %integrator_, align 8, !tbaa !31
  br label %_ZNK5boost10shared_ptrIN8QuantLib20GaussLobattoIntegralEEdeEv.exit

_ZNK5boost10shared_ptrIN8QuantLib20GaussLobattoIntegralEEdeEv.exit: ; preds = %if.end, %cond.false.i
  %3 = phi ptr [ %2, %if.end ], [ %.pre.i, %cond.false.i ]
  call void @llvm.lifetime.start.p0(i64 32, ptr nonnull %ref.tmp) #32
  %_M_manager.i.i = getelementptr inbounds nuw i8, ptr %ref.tmp, i64 16
  %_M_invoker.i = getelementptr inbounds nuw i8, ptr %ref.tmp, i64 24
  store ptr %this, ptr %ref.tmp, align 8, !tbaa !33
  %ref.tmp4.sroa.5.0.ref.tmp.sroa_idx = getelementptr inbounds i8, ptr %ref.tmp, i64 8
  store double %strike, ptr %ref.tmp4.sroa.5.0.ref.tmp.sroa_idx, align 8, !tbaa !52
  store ptr @_ZNSt17_Function_handlerIFddEN8QuantLib14NoArbSabrModel9integrandEE9_M_invokeERKSt9_Any_dataOd, ptr %_M_invoker.i, align 8, !tbaa !92
  store ptr @_ZNSt17_Function_handlerIFddEN8QuantLib14NoArbSabrModel9integrandEE10_M_managerERSt9_Any_dataRKS5_St18_Manager_operation, ptr %_M_manager.i.i, align 8, !tbaa !95
  %fmax_ = getelementptr inbounds nuw i8, ptr %this, i64 64
  %mul = fmul double %strike, 2.000000e+00
  %4 = load double, ptr %fmax_, align 8, !tbaa !52
  %cmp.i1 = fcmp olt double %4, %mul
  %.sroa.speculated = select i1 %cmp.i1, double %mul, double %4
  %call8 = invoke noundef double @_ZNK8QuantLib10IntegratorclERKSt8functionIFddEEdd(ptr noundef nonnull align 8 dereferenceable(40) %3, ptr noundef nonnull align 8 dereferenceable(32) %ref.tmp, double noundef %strike, double noundef %.sroa.speculated)
          to label %invoke.cont7 unwind label %lpad

invoke.cont7:                                     ; preds = %_ZNK5boost10shared_ptrIN8QuantLib20GaussLobattoIntegralEEdeEv.exit
  %sub = fsub double 1.000000e+00, %1
  %numericalIntegralOverP_ = getelementptr inbounds nuw i8, ptr %this, i64 80
  %5 = load double, ptr %numericalIntegralOverP_, align 8, !tbaa !96
  %div = fdiv double %call8, %5
  %mul9 = fmul double %sub, %div
  %6 = load ptr, ptr %_M_manager.i.i, align 8, !tbaa !95
  %tobool.not.i = icmp eq ptr %6, null
  br i1 %tobool.not.i, label %_ZNSt14_Function_baseD2Ev.exit, label %if.then.i

if.then.i:                                        ; preds = %invoke.cont7
  %call.i = invoke noundef zeroext i1 %6(ptr noundef nonnull align 8 dereferenceable(16) %ref.tmp, ptr noundef nonnull align 8 dereferenceable(16) %ref.tmp, i32 noundef 3)
          to label %_ZNSt14_Function_baseD2Ev.exit unwind label %terminate.lpad.i

terminate.lpad.i:                                 ; preds = %if.then.i
  %7 = landingpad { ptr, i32 }
          catch ptr null
  %8 = extractvalue { ptr, i32 } %7, 0
  call void @__clang_call_terminate(ptr %8) #35
  unreachable

_ZNSt14_Function_baseD2Ev.exit:                   ; preds = %invoke.cont7, %if.then.i
  call void @llvm.lifetime.end.p0(i64 32, ptr nonnull %ref.tmp) #32
  br label %return

lpad:                                             ; preds = %_ZNK5boost10shared_ptrIN8QuantLib20GaussLobattoIntegralEEdeEv.exit
  %9 = landingpad { ptr, i32 }
          cleanup
  %10 = load ptr, ptr %_M_manager.i.i, align 8, !tbaa !95
  %tobool.not.i4 = icmp eq ptr %10, null
  br i1 %tobool.not.i4, label %_ZNSt14_Function_baseD2Ev.exit8, label %if.then.i5

if.then.i5:                                       ; preds = %lpad
  %call.i6 = invoke noundef zeroext i1 %10(ptr noundef nonnull align 8 dereferenceable(16) %ref.tmp, ptr noundef nonnull align 8 dereferenceable(16) %ref.tmp, i32 noundef 3)
          to label %_ZNSt14_Function_baseD2Ev.exit8 unwind label %terminate.lpad.i7

terminate.lpad.i7:                                ; preds = %if.then.i5
  %11 = landingpad { ptr, i32 }
          catch ptr null
  %12 = extractvalue { ptr, i32 } %11, 0
  call void @__clang_call_terminate(ptr %12) #35
  unreachable

_ZNSt14_Function_baseD2Ev.exit8:                  ; preds = %lpad, %if.then.i5
  call void @llvm.lifetime.end.p0(i64 32, ptr nonnull %ref.tmp) #32
  resume { ptr, i32 } %9

return:                                           ; preds = %entry, %_ZNSt14_Function_baseD2Ev.exit
  %retval.0 = phi double [ %mul9, %_ZNSt14_Function_baseD2Ev.exit ], [ 0.000000e+00, %entry ]
  ret double %retval.0
}